(dp0
Vengine
p1
Vpdflatex
p2
sVsynctex
p3
I01
sVpackages
p4
c__builtin__
set
p5
((lp6
Vdraftwatermark
p7
aVsetspace
p8
aVlistings
p9
aVlipsum
p10
aVtimes
p11
aVenumerate
p12
aVnatbib
p13
atp14
Rp15
sVfiles_with_guttermarks
p16
g5
((lp17
V/Users/ejt/Desktop/LatexThesisTemp/./docVars.tex
p18
aV/Users/ejt/Documents/MAIN/Dartmouth/Thesis/Final /mastersthesis/./Chapters/1-samplepart1/1-samplechap.tex
p19
aV/Users/ejt/Desktop/LatexThesisTemp/./Appendices/AppendixA.tex
p20
aV/Users/ejt/Desktop/LatexThesisTemp/titlePage.tex
p21
aV/Users/ejt/Desktop/LatexThesisTemp/./Chapters/0-introduction.tex
p22
aV/Users/ejt/Desktop/LatexThesisTemp/./chapterOrdering.tex
p23
aV/usr/local/texlive/2014/texmf-dist/tex/latex/natbib/natbib.sty
p24
aV/Users/ejt/Documents/MAIN/Dartmouth/Thesis/Final /mastersthesis/./chapterOrdering.tex
p25
aV/Users/ejt/Documents/MAIN/Dartmouth/Thesis/Final /mastersthesis/./Appendices/AppendixA.tex
p26
aV/Users/ejt/Desktop/LatexThesisTemp/./main.tex
p27
aS'main.tex'
p28
aV/Users/ejt/Documents/MAIN/Dartmouth/Thesis/Final /mastersthesis/./docVars.tex
p29
aV/Users/ejt/Documents/MAIN/Dartmouth/Thesis/Final /mastersthesis/./Chapters/0-introduction.tex
p30
aV/Users/ejt/Documents/MAIN/Dartmouth/Thesis/Final /mastersthesis/Chapters/1-samplepart1/1-samplechap.tex
p31
aV/Users/ejt/Documents/MAIN/Dartmouth/Thesis/Final /mastersthesis/./main.tex
p32
aV/Users/ejt/Desktop/LatexThesisTemp/./Chapters/1-samplepart1/1-samplechap.tex
p33
atp34
Rp35
s.