(dp0
Vengine
p1
Vpdflatex
p2
sVpackages
p3
c__builtin__
set
p4
((lp5
Vdraftwatermark
p6
aVsetspace
p7
aVlistings
p8
aVlipsum
p9
aVtimes
p10
aVenumerate
p11
aVnatbib
p12
atp13
Rp14
sVfiles_with_guttermarks
p15
g4
((lp16
V/Users/ejt/Desktop/LatexThesisTemp/titlePage.tex
p17
aV/Users/ejt/Documents/School/Dartmouth/Thesis/Final /mastersthesis/./Chapters/1-samplepart1/2-samplechap.tex
p18
aV/Users/ejt/Documents/School/Dartmouth/Thesis/Final /mastersthesis/./main.tex
p19
aV/Users/ejt/Documents/MAIN/Dartmouth/Thesis/Final /mastersthesis/./Chapters/1-samplepart1/2-samplechap.tex
p20
aV/Users/ejt/Desktop/LatexThesisTemp/./Appendices/AppendixA.tex
p21
aV/Users/ejt/Documents/School/Dartmouth/Thesis/Final /mastersthesis/Chapters/1-samplepart1/1-samplechap.tex
p22
aV/Users/ejt/Desktop/LatexThesisTemp/./Chapters/1-samplepart1/1-samplechap.tex
p23
aV/Users/ejt/Documents/School/Dartmouth/Thesis/Final /mastersthesis/./Appendices/AppendixA.tex
p24
aS'main.tex'
p25
aV/Users/ejt/Documents/MAIN/Dartmouth/Thesis/Final /mastersthesis/./Chapters/0-introduction.tex
p26
aV/Users/ejt/Documents/MAIN/Dartmouth/Thesis/Final /mastersthesis/./Appendices/AppendixA.tex
p27
aV/Users/ejt/Documents/MAIN/Dartmouth/Thesis/Final /mastersthesis/Chapters/1-samplepart1/1-samplechap.tex
p28
aV/Users/ejt/Desktop/LatexThesisTemp/./Chapters/0-introduction.tex
p29
aV/Users/ejt/Documents/School/Dartmouth/Thesis/Final /mastersthesis/Appendices/AppendixA.tex
p30
aV/Users/ejt/Documents/MAIN/Dartmouth/Thesis/Final /mastersthesis/Chapters/1-samplepart1/2-samplechap.tex
p31
aV/Users/ejt/Desktop/LatexThesisTemp/./main.tex
p32
aV/Users/ejt/Documents/MAIN/Dartmouth/Thesis/Final /mastersthesis/./docVars.tex
p33
aV/Users/ejt/Desktop/LatexThesisTemp/./chapterOrdering.tex
p34
aV/Users/ejt/Desktop/LatexThesisTemp/./docVars.tex
p35
aV/usr/local/texlive/2014/texmf-dist/tex/latex/natbib/natbib.sty
p36
aV/Users/ejt/Documents/MAIN/Dartmouth/Thesis/Final /mastersthesis/./Chapters/1-samplepart1/1-samplechap.tex
p37
aV/Users/ejt/Documents/MAIN/Dartmouth/Thesis/Final /mastersthesis/./main.tex
p38
aV/Users/ejt/Documents/MAIN/Dartmouth/Thesis/Final /mastersthesis/./chapterOrdering.tex
p39
atp40
Rp41
sVsynctex
p42
I01
s.