(dp0
Vengine
p1
Vpdflatex
p2
sVpackages
p3
c__builtin__
set
p4
((lp5
tp6
Rp7
sVfiles_with_guttermarks
p8
g4
((lp9
V/Users/ejt/Documents/MAIN/Dartmouth/Thesis/Final /mastersthesis/Chapters/0-introduction.tex
p10
aV/Users/ejt/Desktop/LatexThesisTemp/Chapters/./0-introduction.tex
p11
aV/Users/ejt/Documents/MAIN/Dartmouth/Thesis/Final /mastersthesis/Chapters/./0-introduction.tex
p12
aS'0-introduction.tex'
p13
aV/Users/ejt/Desktop/LatexThesisTemp/Chapters/0-introduction.tex
p14
atp15
Rp16
sVsynctex
p17
I01
s.