(dp0
Vengine
p1
Vpdflatex
p2
sVsynctex
p3
I01
sVpackages
p4
c__builtin__
set
p5
((lp6
tp7
Rp8
sVfiles_with_guttermarks
p9
g5
((lp10
V/Users/ejt/Documents/MAIN/Dartmouth/Thesis/Final /mastersthesis/Chapters/1-samplepart1/2-samplechap.tex
p11
aS'2-samplechap.tex'
p12
aV/Users/ejt/Documents/MAIN/Dartmouth/Thesis/Final /mastersthesis/Chapters/1-samplepart1/./2-samplechap.tex
p13
atp14
Rp15
s.